; Function Attrs: nounwind uwtable
define internal void @_camera_stop_timeout_func(ptr readnone captures(none) %0, i32 noundef %1, ptr noundef %2) #0 {
  %4 = load i32, ptr getelementptr inbounds nuw (i8, ptr @darktable, i64 8), align 8, !tbaa !19
  %5 = and i32 %4, 32
  %.not = icmp eq i32 %5, 0
  br i1 %.not, label %7, label %6

6:                                                ; preds = %3
  tail call void (ptr, ...) @dt_print_ext(ptr noundef nonnull @.str.76, i32 noundef %1, ptr noundef %2) #15
  br label %7

7:                                                ; preds = %6, %3
  %8 = tail call i32 @g_source_remove(i32 noundef %1) #15
  %9 = getelementptr inbounds nuw i8, ptr %2, i64 32792
  store ptr null, ptr %9, align 8, !tbaa !207
  ret void
}